target datalayout = "e-m:e-p270:32:32-p271:32:32-p272:64:64-i64:64-i128:128-f80:128-n8:16:32:64-S128"
target triple = "x86_64-pc-linux-gnu"

%struct.nstime_t = type { i64, i32 }
%struct.tm = type { i32, i32, i32, i32, i32, i32, i32, i32, i32, i64, ptr }

@hf_cp56time = internal global i32 0, align 4
@hf_cp56time_ms = internal global i32 0, align 4
@hf_cp56time_min = internal global i32 0, align 4
@hf_cp56time_gen = internal global i32 0, align 4
@hf_cp56time_iv = internal global i32 0, align 4
@hf_cp56time_hour = internal global i32 0, align 4
@hf_cp56time_su = internal global i32 0, align 4
@hf_cp56time_day = internal global i32 0, align 4
@hf_cp56time_dow = internal global i32 0, align 4
@hf_cp56time_month = internal global i32 0, align 4
@hf_cp56time_year = internal global i32 0, align 4
@ett_cp56time = internal global i32 0, align 4

; Function Attrs: null_pointer_is_valid sspstrong uwtable
define internal void @get_CP56Time(ptr noundef %0, ptr noundef %1, ptr noundef %2) #0 {
  %4 = alloca ptr, align 8
  %5 = alloca ptr, align 8
  %6 = alloca ptr, align 8
  %7 = alloca i16, align 2
  %8 = alloca i8, align 1
  %9 = alloca i8, align 1
  %10 = alloca %struct.tm, align 8
  %11 = alloca %struct.nstime_t, align 8
  %12 = alloca ptr, align 8
  %13 = alloca ptr, align 8
  store ptr %0, ptr %4, align 8
  store ptr %1, ptr %5, align 8
  store ptr %2, ptr %6, align 8
  call void @llvm.lifetime.start.p0(i64 2, ptr %7) #8
  call void @llvm.lifetime.start.p0(i64 1, ptr %8) #8
  call void @llvm.lifetime.start.p0(i64 1, ptr %9) #8
  call void @llvm.lifetime.start.p0(i64 56, ptr %10) #8
  call void @llvm.lifetime.start.p0(i64 16, ptr %11) #8
  call void @llvm.lifetime.start.p0(i64 8, ptr %12) #8
  call void @llvm.lifetime.start.p0(i64 8, ptr %13) #8
  %14 = load ptr, ptr %4, align 8
  %15 = load ptr, ptr %5, align 8
  %16 = load i8, ptr %15, align 1
  %17 = zext i8 %16 to i32
  %18 = call zeroext i16 @tvb_get_letohs(ptr noundef %14, i32 noundef %17)
  store i16 %18, ptr %7, align 2
  %19 = load i16, ptr %7, align 2
  %20 = zext i16 %19 to i32
  %21 = sdiv i32 %20, 1000
  %22 = getelementptr inbounds nuw %struct.tm, ptr %10, i32 0, i32 0
  store i32 %21, ptr %22, align 8
  %23 = load i16, ptr %7, align 2
  %24 = zext i16 %23 to i32
  %25 = srem i32 %24, 1000
  %26 = mul i32 %25, 1000000
  %27 = getelementptr inbounds nuw %struct.nstime_t, ptr %11, i32 0, i32 1
  store i32 %26, ptr %27, align 8
  %28 = load ptr, ptr %5, align 8
  %29 = load i8, ptr %28, align 1
  %30 = zext i8 %29 to i32
  %31 = add i32 %30, 2
  %32 = trunc i32 %31 to i8
  store i8 %32, ptr %28, align 1
  %33 = load ptr, ptr %4, align 8
  %34 = load ptr, ptr %5, align 8
  %35 = load i8, ptr %34, align 1
  %36 = zext i8 %35 to i32
  %37 = call zeroext i8 @tvb_get_uint8(ptr noundef %33, i32 noundef %36)
  store i8 %37, ptr %8, align 1
  %38 = load i8, ptr %8, align 1
  %39 = zext i8 %38 to i32
  %40 = and i32 %39, 63
  %41 = getelementptr inbounds nuw %struct.tm, ptr %10, i32 0, i32 1
  store i32 %40, ptr %41, align 4
  %42 = load ptr, ptr %5, align 8
  %43 = load i8, ptr %42, align 1
  %44 = add i8 %43, 1
  store i8 %44, ptr %42, align 1
  %45 = load ptr, ptr %4, align 8
  %46 = load ptr, ptr %5, align 8
  %47 = load i8, ptr %46, align 1
  %48 = zext i8 %47 to i32
  %49 = call zeroext i8 @tvb_get_uint8(ptr noundef %45, i32 noundef %48)
  store i8 %49, ptr %8, align 1
  %50 = load i8, ptr %8, align 1
  %51 = zext i8 %50 to i32
  %52 = and i32 %51, 31
  %53 = getelementptr inbounds nuw %struct.tm, ptr %10, i32 0, i32 2
  store i32 %52, ptr %53, align 8
  %54 = load i8, ptr %8, align 1
  %55 = zext i8 %54 to i32
  %56 = and i32 %55, 128
  %57 = trunc i32 %56 to i8
  store i8 %57, ptr %9, align 1
  %58 = load ptr, ptr %5, align 8
  %59 = load i8, ptr %58, align 1
  %60 = add i8 %59, 1
  store i8 %60, ptr %58, align 1
  %61 = load ptr, ptr %4, align 8
  %62 = load ptr, ptr %5, align 8
  %63 = load i8, ptr %62, align 1
  %64 = zext i8 %63 to i32
  %65 = call zeroext i8 @tvb_get_uint8(ptr noundef %61, i32 noundef %64)
  store i8 %65, ptr %8, align 1
  %66 = load i8, ptr %8, align 1
  %67 = zext i8 %66 to i32
  %68 = and i32 %67, 31
  %69 = getelementptr inbounds nuw %struct.tm, ptr %10, i32 0, i32 3
  store i32 %68, ptr %69, align 4
  %70 = load ptr, ptr %5, align 8
  %71 = load i8, ptr %70, align 1
  %72 = add i8 %71, 1
  store i8 %72, ptr %70, align 1
  %73 = load ptr, ptr %4, align 8
  %74 = load ptr, ptr %5, align 8
  %75 = load i8, ptr %74, align 1
  %76 = zext i8 %75 to i32
  %77 = call zeroext i8 @tvb_get_uint8(ptr noundef %73, i32 noundef %76)
  store i8 %77, ptr %8, align 1
  %78 = load i8, ptr %8, align 1
  %79 = zext i8 %78 to i32
  %80 = and i32 %79, 15
  %81 = sub i32 %80, 1
  %82 = getelementptr inbounds nuw %struct.tm, ptr %10, i32 0, i32 4
  store i32 %81, ptr %82, align 8
  %83 = load ptr, ptr %5, align 8
  %84 = load i8, ptr %83, align 1
  %85 = add i8 %84, 1
  store i8 %85, ptr %83, align 1
  %86 = load ptr, ptr %4, align 8
  %87 = load ptr, ptr %5, align 8
  %88 = load i8, ptr %87, align 1
  %89 = zext i8 %88 to i32
  %90 = call zeroext i8 @tvb_get_uint8(ptr noundef %86, i32 noundef %89)
  store i8 %90, ptr %8, align 1
  %91 = load i8, ptr %8, align 1
  %92 = zext i8 %91 to i32
  %93 = and i32 %92, 127
  %94 = getelementptr inbounds nuw %struct.tm, ptr %10, i32 0, i32 5
  store i32 %93, ptr %94, align 4
  %95 = getelementptr inbounds nuw %struct.tm, ptr %10, i32 0, i32 5
  %96 = load i32, ptr %95, align 4
  %97 = icmp slt i32 %96, 70
  br i1 %97, label %98, label %102

98:                                               ; preds = %3
  %99 = getelementptr inbounds nuw %struct.tm, ptr %10, i32 0, i32 5
  %100 = load i32, ptr %99, align 4
  %101 = add i32 %100, 100
  store i32 %101, ptr %99, align 4
  br label %102

102:                                              ; preds = %98, %3
  %103 = load ptr, ptr %5, align 8
  %104 = load i8, ptr %103, align 1
  %105 = add i8 %104, 1
  store i8 %105, ptr %103, align 1
  %106 = load i8, ptr %9, align 1
  %107 = icmp ne i8 %106, 0
  br i1 %107, label %108, label %110

108:                                              ; preds = %102
  %109 = getelementptr inbounds nuw %struct.tm, ptr %10, i32 0, i32 8
  store i32 1, ptr %109, align 8
  br label %112

110:                                              ; preds = %102
  %111 = getelementptr inbounds nuw %struct.tm, ptr %10, i32 0, i32 8
  store i32 -1, ptr %111, align 8
  br label %112

112:                                              ; preds = %110, %108
  %113 = call i64 @mktime(ptr noundef %10) #8
  %114 = getelementptr inbounds nuw %struct.nstime_t, ptr %11, i32 0, i32 0
  store i64 %113, ptr %114, align 8
  %115 = load ptr, ptr %5, align 8
  %116 = load i8, ptr %115, align 1
  %117 = zext i8 %116 to i32
  %118 = sub i32 %117, 7
  %119 = trunc i32 %118 to i8
  store i8 %119, ptr %115, align 1
  %120 = load ptr, ptr %6, align 8
  %121 = load i32, ptr @hf_cp56time, align 4
  %122 = load ptr, ptr %4, align 8
  %123 = load ptr, ptr %5, align 8
  %124 = load i8, ptr %123, align 1
  %125 = zext i8 %124 to i32
  %126 = call ptr @proto_tree_add_time(ptr noundef %120, i32 noundef %121, ptr noundef %122, i32 noundef %125, i32 noundef 7, ptr noundef %11)
  store ptr %126, ptr %12, align 8
  %127 = load ptr, ptr %12, align 8
  %128 = load i32, ptr @ett_cp56time, align 4
  %129 = call ptr @proto_item_add_subtree(ptr noundef %127, i32 noundef %128)
  store ptr %129, ptr %13, align 8
  %130 = load ptr, ptr %13, align 8
  %131 = load i32, ptr @hf_cp56time_ms, align 4
  %132 = load ptr, ptr %4, align 8
  %133 = load ptr, ptr %5, align 8
  %134 = load i8, ptr %133, align 1
  %135 = zext i8 %134 to i32
  %136 = call ptr @proto_tree_add_item(ptr noundef %130, i32 noundef %131, ptr noundef %132, i32 noundef %135, i32 noundef 2, i32 noundef -2147483648)
  %137 = load ptr, ptr %5, align 8
  %138 = load i8, ptr %137, align 1
  %139 = zext i8 %138 to i32
  %140 = add i32 %139, 2
  %141 = trunc i32 %140 to i8
  store i8 %141, ptr %137, align 1
  %142 = load ptr, ptr %13, align 8
  %143 = load i32, ptr @hf_cp56time_min, align 4
  %144 = load ptr, ptr %4, align 8
  %145 = load ptr, ptr %5, align 8
  %146 = load i8, ptr %145, align 1
  %147 = zext i8 %146 to i32
  %148 = call ptr @proto_tree_add_item(ptr noundef %142, i32 noundef %143, ptr noundef %144, i32 noundef %147, i32 noundef 1, i32 noundef -2147483648)
  %149 = load ptr, ptr %13, align 8
  %150 = load i32, ptr @hf_cp56time_gen, align 4
  %151 = load ptr, ptr %4, align 8
  %152 = load ptr, ptr %5, align 8
  %153 = load i8, ptr %152, align 1
  %154 = zext i8 %153 to i32
  %155 = call ptr @proto_tree_add_item(ptr noundef %149, i32 noundef %150, ptr noundef %151, i32 noundef %154, i32 noundef 1, i32 noundef -2147483648)
  %156 = load ptr, ptr %13, align 8
  %157 = load i32, ptr @hf_cp56time_iv, align 4
  %158 = load ptr, ptr %4, align 8
  %159 = load ptr, ptr %5, align 8
  %160 = load i8, ptr %159, align 1
  %161 = zext i8 %160 to i32
  %162 = call ptr @proto_tree_add_item(ptr noundef %156, i32 noundef %157, ptr noundef %158, i32 noundef %161, i32 noundef 1, i32 noundef -2147483648)
  %163 = load ptr, ptr %5, align 8
  %164 = load i8, ptr %163, align 1
  %165 = add i8 %164, 1
  store i8 %165, ptr %163, align 1
  %166 = load ptr, ptr %13, align 8
  %167 = load i32, ptr @hf_cp56time_hour, align 4
  %168 = load ptr, ptr %4, align 8
  %169 = load ptr, ptr %5, align 8
  %170 = load i8, ptr %169, align 1
  %171 = zext i8 %170 to i32
  %172 = call ptr @proto_tree_add_item(ptr noundef %166, i32 noundef %167, ptr noundef %168, i32 noundef %171, i32 noundef 1, i32 noundef -2147483648)
  %173 = load ptr, ptr %13, align 8
  %174 = load i32, ptr @hf_cp56time_su, align 4
  %175 = load ptr, ptr %4, align 8
  %176 = load ptr, ptr %5, align 8
  %177 = load i8, ptr %176, align 1
  %178 = zext i8 %177 to i32
  %179 = call ptr @proto_tree_add_item(ptr noundef %173, i32 noundef %174, ptr noundef %175, i32 noundef %178, i32 noundef 1, i32 noundef -2147483648)
  %180 = load ptr, ptr %5, align 8
  %181 = load i8, ptr %180, align 1
  %182 = add i8 %181, 1
  store i8 %182, ptr %180, align 1
  %183 = load ptr, ptr %13, align 8
  %184 = load i32, ptr @hf_cp56time_day, align 4
  %185 = load ptr, ptr %4, align 8
  %186 = load ptr, ptr %5, align 8
  %187 = load i8, ptr %186, align 1
  %188 = zext i8 %187 to i32
  %189 = call ptr @proto_tree_add_item(ptr noundef %183, i32 noundef %184, ptr noundef %185, i32 noundef %188, i32 noundef 1, i32 noundef -2147483648)
  %190 = load ptr, ptr %13, align 8
  %191 = load i32, ptr @hf_cp56time_dow, align 4
  %192 = load ptr, ptr %4, align 8
  %193 = load ptr, ptr %5, align 8
  %194 = load i8, ptr %193, align 1
  %195 = zext i8 %194 to i32
  %196 = call ptr @proto_tree_add_item(ptr noundef %190, i32 noundef %191, ptr noundef %192, i32 noundef %195, i32 noundef 1, i32 noundef -2147483648)
  %197 = load ptr, ptr %5, align 8
  %198 = load i8, ptr %197, align 1
  %199 = add i8 %198, 1
  store i8 %199, ptr %197, align 1
  %200 = load ptr, ptr %13, align 8
  %201 = load i32, ptr @hf_cp56time_month, align 4
  %202 = load ptr, ptr %4, align 8
  %203 = load ptr, ptr %5, align 8
  %204 = load i8, ptr %203, align 1
  %205 = zext i8 %204 to i32
  %206 = call ptr @proto_tree_add_item(ptr noundef %200, i32 noundef %201, ptr noundef %202, i32 noundef %205, i32 noundef 1, i32 noundef -2147483648)
  %207 = load ptr, ptr %5, align 8
  %208 = load i8, ptr %207, align 1
  %209 = add i8 %208, 1
  store i8 %209, ptr %207, align 1
  %210 = load ptr, ptr %13, align 8
  %211 = load i32, ptr @hf_cp56time_year, align 4
  %212 = load ptr, ptr %4, align 8
  %213 = load ptr, ptr %5, align 8
  %214 = load i8, ptr %213, align 1
  %215 = zext i8 %214 to i32
  %216 = call ptr @proto_tree_add_item(ptr noundef %210, i32 noundef %211, ptr noundef %212, i32 noundef %215, i32 noundef 1, i32 noundef -2147483648)
  %217 = load ptr, ptr %5, align 8
  %218 = load i8, ptr %217, align 1
  %219 = add i8 %218, 1
  store i8 %219, ptr %217, align 1
  call void @llvm.lifetime.end.p0(i64 8, ptr %13) #8
  call void @llvm.lifetime.end.p0(i64 8, ptr %12) #8
  call void @llvm.lifetime.end.p0(i64 16, ptr %11) #8
  call void @llvm.lifetime.end.p0(i64 56, ptr %10) #8
  call void @llvm.lifetime.end.p0(i64 1, ptr %9) #8
  call void @llvm.lifetime.end.p0(i64 1, ptr %8) #8
  call void @llvm.lifetime.end.p0(i64 2, ptr %7) #8
  ret void
}