; Function Attrs: null_pointer_is_valid sspstrong uwtable
define internal fastcc void @get_CP56Time(ptr noundef %0, ptr noundef captures(none) %1, ptr noundef %2) unnamed_addr #0 {
  %4 = alloca %struct.tm, align 8
  %5 = alloca %struct.nstime_t, align 8
  call void @llvm.lifetime.start.p0(i64 56, ptr nonnull %4) #7
  call void @llvm.lifetime.start.p0(i64 16, ptr nonnull %5) #7
  %6 = load i8, ptr %1, align 1
  %7 = zext i8 %6 to i32
  %8 = tail call zeroext i16 @tvb_get_letohs(ptr noundef %0, i32 noundef %7)
  %9 = udiv i16 %8, 1000
  %.zext = zext nneg i16 %9 to i32
  store i32 %.zext, ptr %4, align 8
  %10 = urem i16 %8, 1000
  %.zext68 = zext nneg i16 %10 to i32
  %11 = mul nuw nsw i32 %.zext68, 1000000
  %12 = getelementptr inbounds nuw i8, ptr %5, i64 8
  store i32 %11, ptr %12, align 8
  %13 = load i8, ptr %1, align 1
  %14 = add i8 %13, 2
  store i8 %14, ptr %1, align 1
  %15 = zext i8 %14 to i32
  %16 = tail call zeroext i8 @tvb_get_uint8(ptr noundef %0, i32 noundef %15)
  %17 = and i8 %16, 63
  %18 = zext nneg i8 %17 to i32
  %19 = getelementptr inbounds nuw i8, ptr %4, i64 4
  store i32 %18, ptr %19, align 4
  %20 = load i8, ptr %1, align 1
  %21 = add i8 %20, 1
  store i8 %21, ptr %1, align 1
  %22 = zext i8 %21 to i32
  %23 = tail call zeroext i8 @tvb_get_uint8(ptr noundef %0, i32 noundef %22)
  %24 = and i8 %23, 31
  %25 = zext nneg i8 %24 to i32
  %26 = getelementptr inbounds nuw i8, ptr %4, i64 8
  store i32 %25, ptr %26, align 8
  %27 = load i8, ptr %1, align 1
  %28 = add i8 %27, 1
  store i8 %28, ptr %1, align 1
  %29 = zext i8 %28 to i32
  %30 = tail call zeroext i8 @tvb_get_uint8(ptr noundef %0, i32 noundef %29)
  %31 = and i8 %30, 31
  %32 = zext nneg i8 %31 to i32
  %33 = getelementptr inbounds nuw i8, ptr %4, i64 12
  store i32 %32, ptr %33, align 4
  %34 = load i8, ptr %1, align 1
  %35 = add i8 %34, 1
  store i8 %35, ptr %1, align 1
  %36 = zext i8 %35 to i32
  %37 = tail call zeroext i8 @tvb_get_uint8(ptr noundef %0, i32 noundef %36)
  %38 = and i8 %37, 15
  %39 = zext nneg i8 %38 to i32
  %40 = add nsw i32 %39, -1
  %41 = getelementptr inbounds nuw i8, ptr %4, i64 16
  store i32 %40, ptr %41, align 8
  %42 = load i8, ptr %1, align 1
  %43 = add i8 %42, 1
  store i8 %43, ptr %1, align 1
  %44 = zext i8 %43 to i32
  %45 = tail call zeroext i8 @tvb_get_uint8(ptr noundef %0, i32 noundef %44)
  %46 = and i8 %45, 127
  %47 = zext nneg i8 %46 to i32
  %48 = getelementptr inbounds nuw i8, ptr %4, i64 20
  %49 = icmp samesign ult i8 %46, 70
  %50 = add nuw nsw i32 %47, 100
  %spec.select = select i1 %49, i32 %50, i32 %47
  store i32 %spec.select, ptr %48, align 4
  %51 = load i8, ptr %1, align 1
  %52 = add i8 %51, 1
  store i8 %52, ptr %1, align 1
  %.not = icmp sgt i8 %23, -1
  %spec.select69 = select i1 %.not, i32 -1, i32 1
  %53 = getelementptr inbounds nuw i8, ptr %4, i64 32
  store i32 %spec.select69, ptr %53, align 8
  %54 = call i64 @mktime(ptr noundef nonnull %4) #7
  store i64 %54, ptr %5, align 8
  %55 = load i8, ptr %1, align 1
  %56 = add i8 %55, -7
  store i8 %56, ptr %1, align 1
  %57 = load i32, ptr @hf_cp56time, align 4
  %58 = zext i8 %56 to i32
  %59 = call ptr @proto_tree_add_time(ptr noundef %2, i32 noundef %57, ptr noundef %0, i32 noundef %58, i32 noundef 7, ptr noundef nonnull %5)
  %60 = load i32, ptr @ett_cp56time, align 4
  %61 = call ptr @proto_item_add_subtree(ptr noundef %59, i32 noundef %60)
  %62 = load i32, ptr @hf_cp56time_ms, align 4
  %63 = load i8, ptr %1, align 1
  %64 = zext i8 %63 to i32
  %65 = call ptr @proto_tree_add_item(ptr noundef %61, i32 noundef %62, ptr noundef %0, i32 noundef %64, i32 noundef 2, i32 noundef -2147483648)
  %66 = load i8, ptr %1, align 1
  %67 = add i8 %66, 2
  store i8 %67, ptr %1, align 1
  %68 = load i32, ptr @hf_cp56time_min, align 4
  %69 = zext i8 %67 to i32
  %70 = call ptr @proto_tree_add_item(ptr noundef %61, i32 noundef %68, ptr noundef %0, i32 noundef %69, i32 noundef 1, i32 noundef -2147483648)
  %71 = load i32, ptr @hf_cp56time_gen, align 4
  %72 = load i8, ptr %1, align 1
  %73 = zext i8 %72 to i32
  %74 = call ptr @proto_tree_add_item(ptr noundef %61, i32 noundef %71, ptr noundef %0, i32 noundef %73, i32 noundef 1, i32 noundef -2147483648)
  %75 = load i32, ptr @hf_cp56time_iv, align 4
  %76 = load i8, ptr %1, align 1
  %77 = zext i8 %76 to i32
  %78 = call ptr @proto_tree_add_item(ptr noundef %61, i32 noundef %75, ptr noundef %0, i32 noundef %77, i32 noundef 1, i32 noundef -2147483648)
  %79 = load i8, ptr %1, align 1
  %80 = add i8 %79, 1
  store i8 %80, ptr %1, align 1
  %81 = load i32, ptr @hf_cp56time_hour, align 4
  %82 = zext i8 %80 to i32
  %83 = call ptr @proto_tree_add_item(ptr noundef %61, i32 noundef %81, ptr noundef %0, i32 noundef %82, i32 noundef 1, i32 noundef -2147483648)
  %84 = load i32, ptr @hf_cp56time_su, align 4
  %85 = load i8, ptr %1, align 1
  %86 = zext i8 %85 to i32
  %87 = call ptr @proto_tree_add_item(ptr noundef %61, i32 noundef %84, ptr noundef %0, i32 noundef %86, i32 noundef 1, i32 noundef -2147483648)
  %88 = load i8, ptr %1, align 1
  %89 = add i8 %88, 1
  store i8 %89, ptr %1, align 1
  %90 = load i32, ptr @hf_cp56time_day, align 4
  %91 = zext i8 %89 to i32
  %92 = call ptr @proto_tree_add_item(ptr noundef %61, i32 noundef %90, ptr noundef %0, i32 noundef %91, i32 noundef 1, i32 noundef -2147483648)
  %93 = load i32, ptr @hf_cp56time_dow, align 4
  %94 = load i8, ptr %1, align 1
  %95 = zext i8 %94 to i32
  %96 = call ptr @proto_tree_add_item(ptr noundef %61, i32 noundef %93, ptr noundef %0, i32 noundef %95, i32 noundef 1, i32 noundef -2147483648)
  %97 = load i8, ptr %1, align 1
  %98 = add i8 %97, 1
  store i8 %98, ptr %1, align 1
  %99 = load i32, ptr @hf_cp56time_month, align 4
  %100 = zext i8 %98 to i32
  %101 = call ptr @proto_tree_add_item(ptr noundef %61, i32 noundef %99, ptr noundef %0, i32 noundef %100, i32 noundef 1, i32 noundef -2147483648)
  %102 = load i8, ptr %1, align 1
  %103 = add i8 %102, 1
  store i8 %103, ptr %1, align 1
  %104 = load i32, ptr @hf_cp56time_year, align 4
  %105 = zext i8 %103 to i32
  %106 = call ptr @proto_tree_add_item(ptr noundef %61, i32 noundef %104, ptr noundef %0, i32 noundef %105, i32 noundef 1, i32 noundef -2147483648)
  %107 = load i8, ptr %1, align 1
  %108 = add i8 %107, 1
  store i8 %108, ptr %1, align 1
  call void @llvm.lifetime.end.p0(i64 16, ptr nonnull %5) #7
  call void @llvm.lifetime.end.p0(i64 56, ptr nonnull %4) #7
  ret void
}